; Function Attrs: mustprogress nofree norecurse nosync nounwind willreturn memory(read, inaccessiblemem: none) uwtable
define internal noundef zeroext i1 @_ZL12isRecordTypeN5clang8QualTypeE(i64 %0) #11 {
  %2 = and i64 %0, -16
  %3 = inttoptr i64 %2 to ptr
  %4 = load ptr, ptr %3, align 16
  %5 = getelementptr inbounds nuw i8, ptr %4, i64 8
  %.sroa.0.0.copyload.i.i.i.i = load i64, ptr %5, align 8
  %6 = and i64 %.sroa.0.0.copyload.i.i.i.i, -16
  %7 = inttoptr i64 %6 to ptr
  %8 = load ptr, ptr %7, align 16
  %9 = getelementptr inbounds nuw i8, ptr %8, i64 16
  %10 = load i8, ptr %9, align 16
  %11 = icmp eq i8 %10, 47
  ret i1 %11
}